; Function Attrs: nounwind uwtable
define dso_local range(i64 0, 4294967296) i64 @hashname(ptr noundef readonly captures(none) %0) local_unnamed_addr #0 {
  %2 = getelementptr inbounds nuw i8, ptr %0, i64 32
  %3 = load i64, ptr %2, align 8
  %4 = inttoptr i64 %3 to ptr
  %5 = tail call i64 @strlen(ptr noundef nonnull dereferenceable(1) %4) #7
  %6 = trunc i64 %5 to i32
  %7 = tail call i32 @hash_bytes(ptr noundef nonnull %4, i32 noundef %6) #6
  %8 = zext i32 %7 to i64
  ret i64 %8
}